; Function Attrs: mustprogress uwtable
define void @_ZN6Assimp6Logger5debugEPKc(ptr noundef nonnull align 8 dereferenceable(12) %this, ptr noundef %message) local_unnamed_addr #5 align 2 {
entry:
  %call = tail call i64 @strlen(ptr noundef nonnull dereferenceable(1) %message) #22
  %cmp = icmp ugt i64 %call, 1024
  %vtable = load ptr, ptr %this, align 8
  %vfn = getelementptr inbounds i8, ptr %vtable, i64 32
  %0 = load ptr, ptr %vfn, align 8
  br i1 %cmp, label %if.then, label %if.end

if.then:                                          ; preds = %entry
  tail call void %0(ptr noundef nonnull align 8 dereferenceable(12) %this, ptr noundef nonnull @.str.2)
  br label %return

if.end:                                           ; preds = %entry
  tail call void %0(ptr noundef nonnull align 8 dereferenceable(12) %this, ptr noundef %message)
  br label %return

return:                                           ; preds = %if.end, %if.then
  ret void
}